target datalayout = "e-m:e-p270:32:32-p271:32:32-p272:64:64-i64:64-i128:128-f80:128-n8:16:32:64-S128"
target triple = "x86_64-pc-linux-gnu"

%struct.__va_list_tag = type { i32, i32, ptr, ptr }

; Function Attrs: mustprogress nounwind uwtable
define void @umsg_close_77(ptr noundef %0) #1 {
  %2 = alloca ptr, align 8
  store ptr %0, ptr %2, align 8, !tbaa !43
  %3 = load ptr, ptr %2, align 8, !tbaa !43
  %4 = icmp eq ptr %3, null
  br i1 %4, label %5, label %6

5:                                                ; preds = %1
  br label %13

6:                                                ; preds = %1
  %7 = load ptr, ptr %2, align 8, !tbaa !43
  %8 = icmp eq ptr %7, null
  br i1 %8, label %13, label %9

9:                                                ; preds = %6
  %10 = load ptr, ptr %7, align 8, !tbaa !58
  %11 = getelementptr inbounds ptr, ptr %10, i64 1
  %12 = load ptr, ptr %11, align 8
  call void %12(ptr noundef nonnull align 8 dereferenceable(512) %7) #13
  br label %13

13:                                               ; preds = %5, %9, %6
  ret void
}

; Function Attrs: mustprogress uwtable
define i32 @u_vformatMessage_77(ptr noundef %0, ptr noundef %1, i32 noundef %2, ptr noundef %3, i32 noundef %4, ptr noundef %5, ptr noundef %6) #0 {
  %8 = alloca ptr, align 8
  %9 = alloca ptr, align 8
  %10 = alloca i32, align 4
  %11 = alloca ptr, align 8
  %12 = alloca i32, align 4
  %13 = alloca ptr, align 8
  %14 = alloca ptr, align 8
  %15 = alloca ptr, align 8
  %16 = alloca i32, align 4
  store ptr %0, ptr %8, align 8, !tbaa !37
  store ptr %1, ptr %9, align 8, !tbaa !38
  store i32 %2, ptr %10, align 4, !tbaa !35
  store ptr %3, ptr %11, align 8, !tbaa !38
  store i32 %4, ptr %12, align 4, !tbaa !35
  store ptr %5, ptr %13, align 8, !tbaa !41
  store ptr %6, ptr %14, align 8, !tbaa !40
  call void @llvm.lifetime.start.p0(i64 8, ptr %15) #13
  %17 = load ptr, ptr %9, align 8, !tbaa !38
  %18 = load i32, ptr %10, align 4, !tbaa !35
  %19 = load ptr, ptr %8, align 8, !tbaa !37
  %20 = load ptr, ptr %14, align 8, !tbaa !40
  %21 = call ptr @umsg_open_77(ptr noundef %17, i32 noundef %18, ptr noundef %19, ptr noundef null, ptr noundef %20)
  store ptr %21, ptr %15, align 8, !tbaa !43
  call void @llvm.lifetime.start.p0(i64 4, ptr %16) #13
  %22 = load ptr, ptr %15, align 8, !tbaa !43
  %23 = load ptr, ptr %11, align 8, !tbaa !38
  %24 = load i32, ptr %12, align 4, !tbaa !35
  %25 = load ptr, ptr %13, align 8, !tbaa !41
  %26 = load ptr, ptr %14, align 8, !tbaa !40
  %27 = call i32 @umsg_vformat_77(ptr noundef %22, ptr noundef %23, i32 noundef %24, ptr noundef %25, ptr noundef %26)
  store i32 %27, ptr %16, align 4, !tbaa !35
  %28 = load ptr, ptr %15, align 8, !tbaa !43
  call void @umsg_close_77(ptr noundef %28)
  %29 = load i32, ptr %16, align 4, !tbaa !35
  call void @llvm.lifetime.end.p0(i64 4, ptr %16) #13
  call void @llvm.lifetime.end.p0(i64 8, ptr %15) #13
  ret i32 %29
}

; Function Attrs: mustprogress uwtable
define i32 @u_formatMessage_77(ptr noundef %0, ptr noundef %1, i32 noundef %2, ptr noundef %3, i32 noundef %4, ptr noundef %5, ...) #0 {
  %7 = alloca ptr, align 8
  %8 = alloca ptr, align 8
  %9 = alloca i32, align 4
  %10 = alloca ptr, align 8
  %11 = alloca i32, align 4
  %12 = alloca ptr, align 8
  %13 = alloca [1 x %struct.__va_list_tag], align 16
  %14 = alloca i32, align 4
  store ptr %0, ptr %7, align 8, !tbaa !37
  store ptr %1, ptr %8, align 8, !tbaa !38
  store i32 %2, ptr %9, align 4, !tbaa !35
  store ptr %3, ptr %10, align 8, !tbaa !38
  store i32 %4, ptr %11, align 4, !tbaa !35
  store ptr %5, ptr %12, align 8, !tbaa !40
  call void @llvm.lifetime.start.p0(i64 24, ptr %13) #13
  call void @llvm.lifetime.start.p0(i64 4, ptr %14) #13
  %15 = getelementptr inbounds [1 x %struct.__va_list_tag], ptr %13, i64 0, i64 0
  call void @llvm.va_start.p0(ptr %15)
  %16 = load ptr, ptr %7, align 8, !tbaa !37
  %17 = load ptr, ptr %8, align 8, !tbaa !38
  %18 = load i32, ptr %9, align 4, !tbaa !35
  %19 = load ptr, ptr %10, align 8, !tbaa !38
  %20 = load i32, ptr %11, align 4, !tbaa !35
  %21 = getelementptr inbounds [1 x %struct.__va_list_tag], ptr %13, i64 0, i64 0
  %22 = load ptr, ptr %12, align 8, !tbaa !40
  %23 = call i32 @u_vformatMessage_77(ptr noundef %16, ptr noundef %17, i32 noundef %18, ptr noundef %19, i32 noundef %20, ptr noundef %21, ptr noundef %22)
  store i32 %23, ptr %14, align 4, !tbaa !35
  %24 = getelementptr inbounds [1 x %struct.__va_list_tag], ptr %13, i64 0, i64 0
  call void @llvm.va_end.p0(ptr %24)
  %25 = load i32, ptr %14, align 4, !tbaa !35
  call void @llvm.lifetime.end.p0(i64 4, ptr %14) #13
  call void @llvm.lifetime.end.p0(i64 24, ptr %13) #13
  ret i32 %25
}