; Function Attrs: mustprogress uwtable
define noundef i32 @u_formatMessage_77(ptr noundef %0, ptr noundef %1, i32 noundef %2, ptr noundef %3, i32 noundef %4, ptr noundef %5, ...) local_unnamed_addr #1 {
  %7 = alloca [1 x %struct.__va_list_tag], align 16
  call void @llvm.lifetime.start.p0(i64 24, ptr nonnull %7) #10
  call void @llvm.va_start.p0(ptr nonnull %7)
  %8 = call ptr @umsg_open_77(ptr noundef %1, i32 noundef %2, ptr noundef %0, ptr noundef null, ptr noundef %5)
  %9 = call i32 @umsg_vformat_77(ptr noundef %8, ptr noundef %3, i32 noundef %4, ptr noundef nonnull %7, ptr noundef %5)
  %10 = icmp eq ptr %8, null
  br i1 %10, label %u_vformatMessage_77.exit, label %11

11:                                               ; preds = %6
  %12 = load ptr, ptr %8, align 8, !tbaa !34
  %13 = getelementptr inbounds nuw i8, ptr %12, i64 8
  %14 = load ptr, ptr %13, align 8
  call void %14(ptr noundef nonnull align 8 dereferenceable(512) %8) #10
  br label %u_vformatMessage_77.exit

u_vformatMessage_77.exit:                         ; preds = %6, %11
  call void @llvm.va_end.p0(ptr nonnull %7)
  call void @llvm.lifetime.end.p0(i64 24, ptr nonnull %7) #10
  ret i32 %9
}